target datalayout = "e-m:e-p270:32:32-p271:32:32-p272:64:64-i64:64-i128:128-f80:128-n8:16:32:64-S128"
target triple = "x86_64-pc-linux-gnu"

%struct.H5HF_hdr_t = type { %struct.H5C_cache_entry_t, i32, i32, i8, i8, i8, i8, %struct.H5HF_dtable_t, i64, i64, i32, i64, i64, %struct.H5O_pline_t, i64, i32, i64, i64, i64, i64, i64, i64, i64, i64, i64, i64, i64, i32, ptr, i64, i8, i8, i8, ptr, i32, ptr, %struct.H5HF_block_iter_t, ptr, i64, i8, i8, i64, i8, i8, i8, i8 }
%struct.H5C_cache_entry_t = type { ptr, i64, i64, ptr, i8, ptr, i8, i8, i8, i8, i32, i8, i8, i8, i8, i8, i32, ptr, i32, i32, i32, i32, i32, i8, i8, ptr, ptr, ptr, ptr, ptr, ptr, i8, i32, i8, i64, ptr, i64, i64, i32, i8, i32, i32, i8, ptr, ptr, ptr }
%struct.H5HF_dtable_t = type { %struct.H5HF_dtable_cparam_t, i64, i32, i32, i32, i32, i32, i32, i32, i64, ptr, ptr, ptr, ptr }
%struct.H5HF_dtable_cparam_t = type { i32, i64, i64, i32, i32 }
%struct.H5O_pline_t = type { %struct.H5O_shared_t, i32, i64, i64, ptr }
%struct.H5O_shared_t = type { i32, ptr, i32, %union.anon }
%union.anon = type { %struct.H5O_mesg_loc_t }
%struct.H5O_mesg_loc_t = type { i32, i64 }
%struct.H5HF_block_iter_t = type { i8, ptr }
%struct.H5HF_hdr_cache_ud_t = type { ptr }

@H5HF_init_g = external global i8, align 1
@H5_libterm_g = external global i8, align 1

; Function Attrs: nounwind uwtable
define internal i32 @H5HF__cache_hdr_get_initial_load_size(ptr noundef %0, ptr noundef %1) #0 {
  %3 = alloca ptr, align 8
  %4 = alloca ptr, align 8
  %5 = alloca ptr, align 8
  %6 = alloca %struct.H5HF_hdr_t, align 8
  store ptr %0, ptr %3, align 8, !tbaa !3
  store ptr %1, ptr %4, align 8, !tbaa !7
  call void @llvm.lifetime.start.p0(i64 8, ptr %5) #8
  %7 = load ptr, ptr %3, align 8, !tbaa !3
  store ptr %7, ptr %5, align 8, !tbaa !9
  call void @llvm.lifetime.start.p0(i64 704, ptr %6) #8
  %8 = load i8, ptr @H5HF_init_g, align 1, !tbaa !11, !range !13, !noundef !14
  %9 = trunc i8 %8 to i1
  br i1 %9, label %14, label %10

10:                                               ; preds = %2
  %11 = load i8, ptr @H5_libterm_g, align 1, !tbaa !11, !range !13, !noundef !14
  %12 = trunc i8 %11 to i1
  %13 = xor i1 %12, true
  br label %14

14:                                               ; preds = %10, %2
  %15 = phi i1 [ true, %2 ], [ %13, %10 ]
  %16 = xor i1 %15, true
  %17 = xor i1 %16, true
  %18 = zext i1 %17 to i32
  %19 = sext i32 %18 to i64
  %20 = call i64 @llvm.expect.i64(i64 %19, i64 1)
  %21 = icmp ne i64 %20, 0
  br i1 %21, label %22, label %103

22:                                               ; preds = %14
  %23 = load ptr, ptr %5, align 8, !tbaa !9
  %24 = getelementptr inbounds nuw %struct.H5HF_hdr_cache_ud_t, ptr %23, i32 0, i32 0
  %25 = load ptr, ptr %24, align 8, !tbaa !15
  %26 = getelementptr inbounds nuw %struct.H5HF_hdr_t, ptr %6, i32 0, i32 28
  store ptr %25, ptr %26, align 8, !tbaa !18
  %27 = load ptr, ptr %5, align 8, !tbaa !9
  %28 = getelementptr inbounds nuw %struct.H5HF_hdr_cache_ud_t, ptr %27, i32 0, i32 0
  %29 = load ptr, ptr %28, align 8, !tbaa !15
  %30 = call zeroext i8 @H5F_sizeof_size(ptr noundef %29)
  %31 = getelementptr inbounds nuw %struct.H5HF_hdr_t, ptr %6, i32 0, i32 31
  store i8 %30, ptr %31, align 1, !tbaa !38
  %32 = load ptr, ptr %5, align 8, !tbaa !9
  %33 = getelementptr inbounds nuw %struct.H5HF_hdr_cache_ud_t, ptr %32, i32 0, i32 0
  %34 = load ptr, ptr %33, align 8, !tbaa !15
  %35 = call zeroext i8 @H5F_sizeof_addr(ptr noundef %34)
  %36 = getelementptr inbounds nuw %struct.H5HF_hdr_t, ptr %6, i32 0, i32 32
  store i8 %35, ptr %36, align 2, !tbaa !39
  %37 = getelementptr inbounds nuw %struct.H5HF_hdr_t, ptr %6, i32 0, i32 31
  %38 = load i8, ptr %37, align 1, !tbaa !38
  %39 = zext i8 %38 to i32
  %40 = add i32 18, %39
  %41 = getelementptr inbounds nuw %struct.H5HF_hdr_t, ptr %6, i32 0, i32 32
  %42 = load i8, ptr %41, align 2, !tbaa !39
  %43 = zext i8 %42 to i32
  %44 = add i32 %40, %43
  %45 = getelementptr inbounds nuw %struct.H5HF_hdr_t, ptr %6, i32 0, i32 31
  %46 = load i8, ptr %45, align 1, !tbaa !38
  %47 = zext i8 %46 to i32
  %48 = add i32 %44, %47
  %49 = getelementptr inbounds nuw %struct.H5HF_hdr_t, ptr %6, i32 0, i32 32
  %50 = load i8, ptr %49, align 2, !tbaa !39
  %51 = zext i8 %50 to i32
  %52 = add i32 %48, %51
  %53 = getelementptr inbounds nuw %struct.H5HF_hdr_t, ptr %6, i32 0, i32 31
  %54 = load i8, ptr %53, align 1, !tbaa !38
  %55 = zext i8 %54 to i32
  %56 = add i32 %52, %55
  %57 = getelementptr inbounds nuw %struct.H5HF_hdr_t, ptr %6, i32 0, i32 31
  %58 = load i8, ptr %57, align 1, !tbaa !38
  %59 = zext i8 %58 to i32
  %60 = add i32 %56, %59
  %61 = getelementptr inbounds nuw %struct.H5HF_hdr_t, ptr %6, i32 0, i32 31
  %62 = load i8, ptr %61, align 1, !tbaa !38
  %63 = zext i8 %62 to i32
  %64 = add i32 %60, %63
  %65 = getelementptr inbounds nuw %struct.H5HF_hdr_t, ptr %6, i32 0, i32 31
  %66 = load i8, ptr %65, align 1, !tbaa !38
  %67 = zext i8 %66 to i32
  %68 = add i32 %64, %67
  %69 = getelementptr inbounds nuw %struct.H5HF_hdr_t, ptr %6, i32 0, i32 31
  %70 = load i8, ptr %69, align 1, !tbaa !38
  %71 = zext i8 %70 to i32
  %72 = add i32 %68, %71
  %73 = getelementptr inbounds nuw %struct.H5HF_hdr_t, ptr %6, i32 0, i32 31
  %74 = load i8, ptr %73, align 1, !tbaa !38
  %75 = zext i8 %74 to i32
  %76 = add i32 %72, %75
  %77 = getelementptr inbounds nuw %struct.H5HF_hdr_t, ptr %6, i32 0, i32 31
  %78 = load i8, ptr %77, align 1, !tbaa !38
  %79 = zext i8 %78 to i32
  %80 = add i32 %76, %79
  %81 = getelementptr inbounds nuw %struct.H5HF_hdr_t, ptr %6, i32 0, i32 31
  %82 = load i8, ptr %81, align 1, !tbaa !38
  %83 = zext i8 %82 to i32
  %84 = add i32 %80, %83
  %85 = getelementptr inbounds nuw %struct.H5HF_hdr_t, ptr %6, i32 0, i32 31
  %86 = load i8, ptr %85, align 1, !tbaa !38
  %87 = zext i8 %86 to i32
  %88 = add i32 2, %87
  %89 = getelementptr inbounds nuw %struct.H5HF_hdr_t, ptr %6, i32 0, i32 31
  %90 = load i8, ptr %89, align 1, !tbaa !38
  %91 = zext i8 %90 to i32
  %92 = add i32 %88, %91
  %93 = add i32 %92, 2
  %94 = add i32 %93, 2
  %95 = getelementptr inbounds nuw %struct.H5HF_hdr_t, ptr %6, i32 0, i32 32
  %96 = load i8, ptr %95, align 2, !tbaa !39
  %97 = zext i8 %96 to i32
  %98 = add i32 %94, %97
  %99 = add i32 %98, 2
  %100 = add i32 %84, %99
  %101 = zext i32 %100 to i64
  %102 = load ptr, ptr %4, align 8, !tbaa !7
  store i64 %101, ptr %102, align 8, !tbaa !40
  br label %103

103:                                              ; preds = %22, %14
  call void @llvm.lifetime.end.p0(i64 704, ptr %6) #8
  call void @llvm.lifetime.end.p0(i64 8, ptr %5) #8
  ret i32 0
}