; Function Attrs: nounwind uwtable
define internal noundef i32 @H5HF__cache_hdr_get_initial_load_size(ptr noundef readonly captures(none) %0, ptr noundef writeonly captures(none) %1) #0 {
  %3 = load i8, ptr @H5HF_init_g, align 1, !tbaa !3, !range !7, !noundef !8
  %4 = trunc nuw i8 %3 to i1
  %5 = load i8, ptr @H5_libterm_g, align 1, !range !7
  %6 = trunc nuw i8 %5 to i1
  %7 = xor i1 %6, true
  %8 = select i1 %4, i1 true, i1 %7
  br i1 %8, label %9, label %18, !prof !9

9:                                                ; preds = %2
  %10 = load ptr, ptr %0, align 8, !tbaa !10
  %11 = tail call zeroext i8 @H5F_sizeof_size(ptr noundef %10) #9
  %12 = load ptr, ptr %0, align 8, !tbaa !10
  %13 = tail call zeroext i8 @H5F_sizeof_addr(ptr noundef %12) #9
  %14 = zext i8 %11 to i64
  %15 = zext i8 %13 to i64
  %factor = mul nuw nsw i64 %15, 3
  %reass.mul23 = mul nuw nsw i64 %14, 12
  %16 = add nuw nsw i64 %reass.mul23, 26
  %17 = add nuw nsw i64 %16, %factor
  store i64 %17, ptr %1, align 8, !tbaa !14
  br label %18

18:                                               ; preds = %9, %2
  ret i32 0
}